target datalayout = "e-m:e-p270:32:32-p271:32:32-p272:64:64-i64:64-i128:128-f80:128-n8:16:32:64-S128"
target triple = "x86_64-pc-linux-gnu"

%struct.SwrContext = type { ptr, i32, ptr, i32, i32, i32, %struct.AVChannelLayout, %struct.AVChannelLayout, %struct.AVChannelLayout, i32, i32, i32, float, float, float, float, float, i32, ptr, i32, %struct.AVChannelLayout, %struct.AVChannelLayout, %struct.AVChannelLayout, i32, i32, %struct.DitherContext, i32, i32, i32, i32, double, i32, double, double, i32, float, float, float, float, float, i64, i32, i32, i32, %struct.AudioData, %struct.AudioData, %struct.AudioData, %struct.AudioData, %struct.AudioData, %struct.AudioData, %struct.AudioData, %struct.AudioData, i32, i32, i32, i32, i64, i64, i32, double, ptr, ptr, ptr, ptr, ptr, [64 x [64 x double]], [64 x [64 x float]], ptr, ptr, ptr, ptr, [64 x [64 x i32]], [64 x [65 x i8]], ptr, ptr, ptr, ptr, ptr }
%struct.AVChannelLayout = type { i32, i32, %union.anon, ptr }
%union.anon = type { i64 }
%struct.DitherContext = type { i32, i32, float, float, i32, float, float, i32, [20 x float], [64 x [40 x float]], %struct.AudioData, %struct.AudioData, i32 }
%struct.AudioData = type { [64 x ptr], ptr, i32, i32, i32, i32, i32 }

@.str = private unnamed_addr constant [5 x i8] c"ochl\00", align 1
@.str.1 = private unnamed_addr constant [4 x i8] c"osf\00", align 1
@.str.2 = private unnamed_addr constant [4 x i8] c"osr\00", align 1
@.str.3 = private unnamed_addr constant [5 x i8] c"ichl\00", align 1
@.str.4 = private unnamed_addr constant [4 x i8] c"isf\00", align 1
@.str.5 = private unnamed_addr constant [4 x i8] c"isr\00", align 1
@.str.6 = private unnamed_addr constant [4 x i8] c"uch\00", align 1
@.str.7 = private unnamed_addr constant [22 x i8] c"Failed to set option\0A\00", align 1

; Function Attrs: nounwind uwtable
define i32 @swr_alloc_set_opts2(ptr noundef %0, ptr noundef %1, i32 noundef %2, i32 noundef %3, ptr noundef %4, i32 noundef %5, i32 noundef %6, i32 noundef %7, ptr noundef %8) #0 {
  %10 = alloca i32, align 4
  %11 = alloca ptr, align 8
  %12 = alloca ptr, align 8
  %13 = alloca i32, align 4
  %14 = alloca i32, align 4
  %15 = alloca ptr, align 8
  %16 = alloca i32, align 4
  %17 = alloca i32, align 4
  %18 = alloca i32, align 4
  %19 = alloca ptr, align 8
  %20 = alloca ptr, align 8
  %21 = alloca i32, align 4
  %22 = alloca i32, align 4
  store ptr %0, ptr %11, align 8, !tbaa !26
  store ptr %1, ptr %12, align 8, !tbaa !29
  store i32 %2, ptr %13, align 4, !tbaa !31
  store i32 %3, ptr %14, align 4, !tbaa !31
  store ptr %4, ptr %15, align 8, !tbaa !29
  store i32 %5, ptr %16, align 4, !tbaa !31
  store i32 %6, ptr %17, align 4, !tbaa !31
  store i32 %7, ptr %18, align 4, !tbaa !31
  store ptr %8, ptr %19, align 8, !tbaa !32
  call void @llvm.lifetime.start.p0(i64 8, ptr %20) #9
  %23 = load ptr, ptr %11, align 8, !tbaa !26
  %24 = load ptr, ptr %23, align 8, !tbaa !4
  store ptr %24, ptr %20, align 8, !tbaa !4
  call void @llvm.lifetime.start.p0(i64 4, ptr %21) #9
  %25 = load ptr, ptr %20, align 8, !tbaa !4
  %26 = icmp ne ptr %25, null
  br i1 %26, label %29, label %27

27:                                               ; preds = %9
  %28 = call ptr @swr_alloc()
  store ptr %28, ptr %20, align 8, !tbaa !4
  br label %29

29:                                               ; preds = %27, %9
  %30 = load ptr, ptr %20, align 8, !tbaa !4
  %31 = icmp ne ptr %30, null
  br i1 %31, label %33, label %32

32:                                               ; preds = %29
  store i32 -12, ptr %10, align 4
  store i32 1, ptr %22, align 4
  br label %88

33:                                               ; preds = %29
  %34 = load ptr, ptr %20, align 8, !tbaa !4
  %35 = load ptr, ptr %11, align 8, !tbaa !26
  store ptr %34, ptr %35, align 8, !tbaa !4
  %36 = load i32, ptr %18, align 4, !tbaa !31
  %37 = load ptr, ptr %20, align 8, !tbaa !4
  %38 = getelementptr inbounds nuw %struct.SwrContext, ptr %37, i32 0, i32 1
  store i32 %36, ptr %38, align 8, !tbaa !33
  %39 = load ptr, ptr %19, align 8, !tbaa !32
  %40 = load ptr, ptr %20, align 8, !tbaa !4
  %41 = getelementptr inbounds nuw %struct.SwrContext, ptr %40, i32 0, i32 2
  store ptr %39, ptr %41, align 8, !tbaa !34
  %42 = load ptr, ptr %20, align 8, !tbaa !4
  %43 = load ptr, ptr %12, align 8, !tbaa !29
  %44 = call i32 @av_opt_set_chlayout(ptr noundef %42, ptr noundef @.str, ptr noundef %43, i32 noundef 0)
  store i32 %44, ptr %21, align 4, !tbaa !31
  %45 = icmp slt i32 %44, 0
  br i1 %45, label %46, label %47

46:                                               ; preds = %33
  br label %84

47:                                               ; preds = %33
  %48 = load ptr, ptr %20, align 8, !tbaa !4
  %49 = load i32, ptr %13, align 4, !tbaa !31
  %50 = sext i32 %49 to i64
  %51 = call i32 @av_opt_set_int(ptr noundef %48, ptr noundef @.str.1, i64 noundef %50, i32 noundef 0)
  store i32 %51, ptr %21, align 4, !tbaa !31
  %52 = icmp slt i32 %51, 0
  br i1 %52, label %53, label %54

53:                                               ; preds = %47
  br label %84

54:                                               ; preds = %47
  %55 = load ptr, ptr %20, align 8, !tbaa !4
  %56 = load i32, ptr %14, align 4, !tbaa !31
  %57 = sext i32 %56 to i64
  %58 = call i32 @av_opt_set_int(ptr noundef %55, ptr noundef @.str.2, i64 noundef %57, i32 noundef 0)
  store i32 %58, ptr %21, align 4, !tbaa !31
  %59 = icmp slt i32 %58, 0
  br i1 %59, label %60, label %61

60:                                               ; preds = %54
  br label %84

61:                                               ; preds = %54
  %62 = load ptr, ptr %20, align 8, !tbaa !4
  %63 = load ptr, ptr %15, align 8, !tbaa !29
  %64 = call i32 @av_opt_set_chlayout(ptr noundef %62, ptr noundef @.str.3, ptr noundef %63, i32 noundef 0)
  store i32 %64, ptr %21, align 4, !tbaa !31
  %65 = icmp slt i32 %64, 0
  br i1 %65, label %66, label %67

66:                                               ; preds = %61
  br label %84

67:                                               ; preds = %61
  %68 = load ptr, ptr %20, align 8, !tbaa !4
  %69 = load i32, ptr %16, align 4, !tbaa !31
  %70 = sext i32 %69 to i64
  %71 = call i32 @av_opt_set_int(ptr noundef %68, ptr noundef @.str.4, i64 noundef %70, i32 noundef 0)
  store i32 %71, ptr %21, align 4, !tbaa !31
  %72 = icmp slt i32 %71, 0
  br i1 %72, label %73, label %74

73:                                               ; preds = %67
  br label %84

74:                                               ; preds = %67
  %75 = load ptr, ptr %20, align 8, !tbaa !4
  %76 = load i32, ptr %17, align 4, !tbaa !31
  %77 = sext i32 %76 to i64
  %78 = call i32 @av_opt_set_int(ptr noundef %75, ptr noundef @.str.5, i64 noundef %77, i32 noundef 0)
  store i32 %78, ptr %21, align 4, !tbaa !31
  %79 = icmp slt i32 %78, 0
  br i1 %79, label %80, label %81

80:                                               ; preds = %74
  br label %84

81:                                               ; preds = %74
  %82 = load ptr, ptr %20, align 8, !tbaa !4
  %83 = call i32 @av_opt_set_int(ptr noundef %82, ptr noundef @.str.6, i64 noundef 0, i32 noundef 0)
  store i32 0, ptr %10, align 4
  store i32 1, ptr %22, align 4
  br label %88

84:                                               ; preds = %80, %73, %66, %60, %53, %46
  %85 = load ptr, ptr %20, align 8, !tbaa !4
  call void (ptr, i32, ptr, ...) @av_log(ptr noundef %85, i32 noundef 16, ptr noundef @.str.7)
  %86 = load ptr, ptr %11, align 8, !tbaa !26
  call void @swr_free(ptr noundef %86)
  %87 = load i32, ptr %21, align 4, !tbaa !31
  store i32 %87, ptr %10, align 4
  store i32 1, ptr %22, align 4
  br label %88

88:                                               ; preds = %84, %81, %32
  call void @llvm.lifetime.end.p0(i64 4, ptr %21) #9
  call void @llvm.lifetime.end.p0(i64 8, ptr %20) #9
  %89 = load i32, ptr %10, align 4
  ret i32 %89
}