; Function Attrs: nounwind uwtable
define range(i32 -2147483648, 1) i32 @swr_alloc_set_opts2(ptr noundef %0, ptr noundef %1, i32 noundef %2, i32 noundef %3, ptr noundef %4, i32 noundef %5, i32 noundef %6, i32 noundef %7, ptr noundef %8) local_unnamed_addr #1 {
  %10 = load ptr, ptr %0, align 8, !tbaa !23
  %.not = icmp eq ptr %10, null
  br i1 %.not, label %11, label %.thread

11:                                               ; preds = %9
  %12 = tail call ptr @swr_alloc() #12
  %.not34 = icmp eq ptr %12, null
  br i1 %.not34, label %39, label %.thread

.thread:                                          ; preds = %9, %11
  %.02537 = phi ptr [ %12, %11 ], [ %10, %9 ]
  store ptr %.02537, ptr %0, align 8, !tbaa !23
  %13 = getelementptr inbounds nuw i8, ptr %.02537, i64 8
  store i32 %7, ptr %13, align 8, !tbaa !25
  %14 = getelementptr inbounds nuw i8, ptr %.02537, i64 16
  store ptr %8, ptr %14, align 8, !tbaa !26
  %15 = tail call i32 @av_opt_set_chlayout(ptr noundef nonnull %.02537, ptr noundef nonnull @.str, ptr noundef %1, i32 noundef 0) #12
  %16 = icmp slt i32 %15, 0
  br i1 %16, label %38, label %17

17:                                               ; preds = %.thread
  %18 = sext i32 %2 to i64
  %19 = tail call i32 @av_opt_set_int(ptr noundef nonnull %.02537, ptr noundef nonnull @.str.1, i64 noundef %18, i32 noundef 0) #12
  %20 = icmp slt i32 %19, 0
  br i1 %20, label %38, label %21

21:                                               ; preds = %17
  %22 = sext i32 %3 to i64
  %23 = tail call i32 @av_opt_set_int(ptr noundef nonnull %.02537, ptr noundef nonnull @.str.2, i64 noundef %22, i32 noundef 0) #12
  %24 = icmp slt i32 %23, 0
  br i1 %24, label %38, label %25

25:                                               ; preds = %21
  %26 = tail call i32 @av_opt_set_chlayout(ptr noundef nonnull %.02537, ptr noundef nonnull @.str.3, ptr noundef %4, i32 noundef 0) #12
  %27 = icmp slt i32 %26, 0
  br i1 %27, label %38, label %28

28:                                               ; preds = %25
  %29 = sext i32 %5 to i64
  %30 = tail call i32 @av_opt_set_int(ptr noundef nonnull %.02537, ptr noundef nonnull @.str.4, i64 noundef %29, i32 noundef 0) #12
  %31 = icmp slt i32 %30, 0
  br i1 %31, label %38, label %32

32:                                               ; preds = %28
  %33 = sext i32 %6 to i64
  %34 = tail call i32 @av_opt_set_int(ptr noundef nonnull %.02537, ptr noundef nonnull @.str.5, i64 noundef %33, i32 noundef 0) #12
  %35 = icmp slt i32 %34, 0
  br i1 %35, label %38, label %36

36:                                               ; preds = %32
  %37 = tail call i32 @av_opt_set_int(ptr noundef nonnull %.02537, ptr noundef nonnull @.str.6, i64 noundef 0, i32 noundef 0) #12
  br label %39

38:                                               ; preds = %32, %28, %25, %21, %17, %.thread
  %.0 = phi i32 [ %15, %.thread ], [ %19, %17 ], [ %23, %21 ], [ %26, %25 ], [ %30, %28 ], [ %34, %32 ]
  tail call void (ptr, i32, ptr, ...) @av_log(ptr noundef nonnull %.02537, i32 noundef 16, ptr noundef nonnull @.str.7) #12
  tail call void @swr_free(ptr noundef nonnull %0)
  br label %39

39:                                               ; preds = %11, %38, %36
  %.026 = phi i32 [ %.0, %38 ], [ 0, %36 ], [ -12, %11 ]
  ret i32 %.026
}